csupybot.ircutils
IrcDict
p1
((dp2
S'#curecoin'
p3
(lp4
(lp5
S'CureCoin: Crypto and folding FOR SCIENCE!! | AMD LINUX TEST IN #fah | CureCoin Clients: https://tinyurl.com/CurecoinClients | Curecoin Calculator / CUR-BTC markets: http://tinyurl.com/ncsefac and http://tinyurl.com/pmp3uqf Vote for Curecoin http://tinyurl.com/mdb7hwc | Be excellent to each other'
p6
aa(lp7
S'CureCoin: Crypto and folding FOR SCIENCE!! | AMD LINUX TEST IN #fah | CureCoin Clients: https://tinyurl.com/CurecoinClients | Curecoin Calculator / CUR-BTC markets: http://tinyurl.com/ncsefac and http://tinyurl.com/pmp3uqf Vote for Curecoin http://tinyurl.com/mdb7hwc | Be excellent to each other'
p8
aa(lp9
S'CureCoin: Crypto and folding FOR SCIENCE!! | AMD LINUX TEST IN #fah | CureCoin Clients: https://tinyurl.com/CurecoinClients | Curecoin Calculator / CUR-BTC markets: http://tinyurl.com/ncsefac and http://tinyurl.com/pmp3uqf Vote for Curecoin http://tinyurl.com/mdb7hwc | Be excellent to each other'
p10
aa(lp11
S'CureCoin: Crypto and folding FOR SCIENCE!! | AMD LINUX TEST IN #fah | CureCoin Clients: https://tinyurl.com/CurecoinClients | Curecoin Calculator / CUR-BTC markets: http://tinyurl.com/ncsefac and http://tinyurl.com/pmp3uqf Vote for Curecoin http://tinyurl.com/mdb7hwc | Be excellent to each other'
p12
aasS'##myriadcoin'
p13
(lp14
(lp15
S'New website: http://myriadplatform.org // Reddit: http://reddit.com/r/myriadcoin // Want to help develop Myriad or be a website content contributor? Click here: http://myriadplatform.org/content-creators-wanted/'
p16
aa(lp17
S'New website: http://myriadplatform.org // Reddit: http://reddit.com/r/myriadcoin // Want to help develop Myriad or be a website content contributor? Click here: http://myriadplatform.org/content-creators-wanted/'
p18
aa(lp19
S'New website: http://myriadplatform.org // Reddit: http://reddit.com/r/myriadcoin // Want to help develop Myriad or be a website content contributor? Click here: http://myriadplatform.org/content-creators-wanted/'
p20
aa(lp21
S'New website: http://myriadplatform.org // Reddit: http://reddit.com/r/myriadcoin // Want to help develop Myriad or be a website content contributor? Click here: http://myriadplatform.org/content-creators-wanted/'
p22
aa(lp23
S'New website: http://myriadplatform.org // Reddit: http://reddit.com/r/myriadcoin // Want to help develop Myriad or be a website content contributor? Click here: http://myriadplatform.org/content-creators-wanted/'
p24
aasS'#foundationdgc'
p25
(lp26
(lp27
S'New DGC Foundation Channel | http://digitalcoin.foundation | NEW! Mandatory Foundation Member Mining Rules: http://bit.ly/VaVErd'
p28
aa(lp29
S'New DGC Foundation Channel | http://digitalcoin.foundation | NEW! Mandatory Foundation Member Mining Rules: http://bit.ly/VaVErd'
p30
aa(lp31
S'New DGC Foundation Channel | http://digitalcoin.foundation | NEW! Mandatory Foundation Member Mining Rules: http://bit.ly/VaVErd'
p32
aa(lp33
S'New DGC Foundation Channel | http://digitalcoin.foundation | NEW! Mandatory Foundation Member Mining Rules: http://bit.ly/VaVErd'
p34
aasS'#digitalcoin'
p35
(lp36
(lp37
S'2014 DGC FantasyFootball Starts Tonight! || http://forum.digitalcoin.co/ || Blockchain: http://chainz.cryptoid.info/dgc/# || Join the DGC Foundation: http://digitalcoin.foundation || Mine DGC: http://dgc.poolerrangers.com || Follow the Fantasy Football Standings: http://yhoo.it/1pNNrab'
p38
aa(lp39
S'2014 DGC FantasyFootball Starts Tonight! || http://forum.digitalcoin.co/ || Blockchain: http://chainz.cryptoid.info/dgc/# || Join the DGC Foundation: http://digitalcoin.foundation || Mine DGC: http://dgc.poolerrangers.com || Follow the Fantasy Football Standings: http://yhoo.it/1pNNrab'
p40
aa(lp41
S'2014 DGC FantasyFootball Starts Tonight! || http://forum.digitalcoin.co/ || Blockchain: http://chainz.cryptoid.info/dgc/# || Join the DGC Foundation: http://digitalcoin.foundation || Mine DGC: http://dgc.poolerrangers.com || Follow the Fantasy Football Standings: http://yhoo.it/1pNNrab'
p42
aa(lp43
S'2014 DGC FantasyFootball Starts Tonight! || http://forum.digitalcoin.co/ || Blockchain: http://chainz.cryptoid.info/dgc/# || Join the DGC Foundation: http://digitalcoin.foundation || Mine DGC: http://dgc.poolerrangers.com || Follow the Fantasy Football Standings: http://yhoo.it/1pNNrab'
p44
aasS'#myriadcoin'
p45
(lp46
(lp47
S'\xe2\x98\x86\xe2\x98\x86 Please join ##myriadcoin for official Myriad channel (double-hash) \xe2\x98\x86\xe2\x98\x86'
p48
aa(lp49
S'\xe2\x98\x86\xe2\x98\x86 Please join ##myriadcoin for official Myriad channel (double-hash) \xe2\x98\x86\xe2\x98\x86'
p50
aa(lp51
S'\xe2\x98\x86\xe2\x98\x86 Please join ##myriadcoin for official Myriad channel (double-hash) \xe2\x98\x86\xe2\x98\x86'
p52
aa(lp53
S'\xe2\x98\x86\xe2\x98\x86 Please join ##myriadcoin for official Myriad channel (double-hash) \xe2\x98\x86\xe2\x98\x86'
p54
aasS'#fridaynightunix'
p55
(lp56
(lp57
S'How better to spend a Friday Night?'
p58
aa(lp59
S'How better to spend a Friday Night?'
p60
aa(lp61
S'How better to spend a Friday Night?'
p62
aa(lp63
S"Don't come in here and ask about Quark."
p64
aastRp65
.csupybot.ircutils
IrcDict
p1
((dtRp2
.csupybot.ircutils
IrcDict
p1
((dtRp2
.csupybot.ircutils
IrcSet
p1
((lp2
ccopy_reg
_reconstructor
p3
(csupybot.ircutils
IrcString
p4
c__builtin__
str
p5
S'#digitalcoin00'
tRp6
(dp7
S'lowered'
p8
S'#digitalcoin00'
p9
sbag3
(g4
g5
S'##digitalcoin'
tRp10
(dp11
g8
S'##digitalcoin'
p12
sbag3
(g4
g5
S'#PolyMYR'
tRp13
(dp14
g8
S'#polymyr'
p15
sbag3
(g4
g5
S'#1001'
tRp16
(dp17
g8
S'#1001'
p18
sbatRp19
.